target datalayout = "e-m:e-p270:32:32-p271:32:32-p272:64:64-i64:64-i128:128-f80:128-n8:16:32:64-S128"
target triple = "x86_64-unknown-linux-gnu"

%class.btVector3 = type { [4 x float] }
%"struct.btSoftBody::Feature" = type { %"struct.btSoftBody::Element", ptr }
%"struct.btSoftBody::Element" = type { ptr }
%"struct.btSoftBody::Face" = type <{ %"struct.btSoftBody::Feature", [3 x ptr], %class.btVector3, float, [4 x i8], ptr, %class.btVector4, %class.btVector3, %class.btVector3, %class.btVector3, i32, [4 x i8] }>
%class.btVector4 = type { %class.btVector3 }

@_ZZN10btSoftBody10appendNoteEPKcRK9btVector3PNS_4FaceEE1w = internal constant float 0x3FD5555560000000, align 4

; Function Attrs: mustprogress nounwind uwtable
define linkonce_odr dso_local void @_ZN9btVector3C2ERKfS1_S1_(ptr noundef nonnull align 4 dereferenceable(16) %this, ptr noundef nonnull align 4 dereferenceable(4) %_x, ptr noundef nonnull align 4 dereferenceable(4) %_y, ptr noundef nonnull align 4 dereferenceable(4) %_z) unnamed_addr #1 comdat align 2 {
entry:
  %this.addr = alloca ptr, align 8
  %_x.addr = alloca ptr, align 8
  %_y.addr = alloca ptr, align 8
  %_z.addr = alloca ptr, align 8
  store ptr %this, ptr %this.addr, align 8
  store ptr %_x, ptr %_x.addr, align 8
  store ptr %_y, ptr %_y.addr, align 8
  store ptr %_z, ptr %_z.addr, align 8
  %this1 = load ptr, ptr %this.addr, align 8
  %0 = load ptr, ptr %_x.addr, align 8
  %1 = load float, ptr %0, align 4
  %m_floats = getelementptr inbounds %class.btVector3, ptr %this1, i32 0, i32 0
  %arrayidx = getelementptr inbounds [4 x float], ptr %m_floats, i64 0, i64 0
  store float %1, ptr %arrayidx, align 4
  %2 = load ptr, ptr %_y.addr, align 8
  %3 = load float, ptr %2, align 4
  %m_floats2 = getelementptr inbounds %class.btVector3, ptr %this1, i32 0, i32 0
  %arrayidx3 = getelementptr inbounds [4 x float], ptr %m_floats2, i64 0, i64 1
  store float %3, ptr %arrayidx3, align 4
  %4 = load ptr, ptr %_z.addr, align 8
  %5 = load float, ptr %4, align 4
  %m_floats4 = getelementptr inbounds %class.btVector3, ptr %this1, i32 0, i32 0
  %arrayidx5 = getelementptr inbounds [4 x float], ptr %m_floats4, i64 0, i64 2
  store float %5, ptr %arrayidx5, align 4
  %m_floats6 = getelementptr inbounds %class.btVector3, ptr %this1, i32 0, i32 0
  %arrayidx7 = getelementptr inbounds [4 x float], ptr %m_floats6, i64 0, i64 3
  store float 0.000000e+00, ptr %arrayidx7, align 4
  ret void
}

; Function Attrs: mustprogress nounwind uwtable
define linkonce_odr dso_local void @_ZN9btVector4C2ERKfS1_S1_S1_(ptr noundef nonnull align 4 dereferenceable(16) %this, ptr noundef nonnull align 4 dereferenceable(4) %_x, ptr noundef nonnull align 4 dereferenceable(4) %_y, ptr noundef nonnull align 4 dereferenceable(4) %_z, ptr noundef nonnull align 4 dereferenceable(4) %_w) unnamed_addr #1 comdat align 2 {
entry:
  %this.addr = alloca ptr, align 8
  %_x.addr = alloca ptr, align 8
  %_y.addr = alloca ptr, align 8
  %_z.addr = alloca ptr, align 8
  %_w.addr = alloca ptr, align 8
  store ptr %this, ptr %this.addr, align 8
  store ptr %_x, ptr %_x.addr, align 8
  store ptr %_y, ptr %_y.addr, align 8
  store ptr %_z, ptr %_z.addr, align 8
  store ptr %_w, ptr %_w.addr, align 8
  %this1 = load ptr, ptr %this.addr, align 8
  %0 = load ptr, ptr %_x.addr, align 8
  %1 = load ptr, ptr %_y.addr, align 8
  %2 = load ptr, ptr %_z.addr, align 8
  call void @_ZN9btVector3C2ERKfS1_S1_(ptr noundef nonnull align 4 dereferenceable(16) %this1, ptr noundef nonnull align 4 dereferenceable(4) %0, ptr noundef nonnull align 4 dereferenceable(4) %1, ptr noundef nonnull align 4 dereferenceable(4) %2)
  %3 = load ptr, ptr %_w.addr, align 8
  %4 = load float, ptr %3, align 4
  %m_floats = getelementptr inbounds %class.btVector3, ptr %this1, i32 0, i32 0
  %arrayidx = getelementptr inbounds [4 x float], ptr %m_floats, i64 0, i64 3
  store float %4, ptr %arrayidx, align 4
  ret void
}

; Function Attrs: mustprogress uwtable
define dso_local void @_ZN10btSoftBody10appendNoteEPKcRK9btVector3PNS_4FaceE(ptr noundef nonnull align 8 dereferenceable(2064) %this, ptr noundef %text, ptr noundef nonnull align 4 dereferenceable(16) %o, ptr noundef %feature) #5 align 2 {
entry:
  %this.addr = alloca ptr, align 8
  %text.addr = alloca ptr, align 8
  %o.addr = alloca ptr, align 8
  %feature.addr = alloca ptr, align 8
  %ref.tmp = alloca %class.btVector4, align 4
  %ref.tmp2 = alloca float, align 4
  store ptr %this, ptr %this.addr, align 8
  store ptr %text, ptr %text.addr, align 8
  store ptr %o, ptr %o.addr, align 8
  store ptr %feature, ptr %feature.addr, align 8
  %this1 = load ptr, ptr %this.addr, align 8
  %0 = load ptr, ptr %text.addr, align 8
  %1 = load ptr, ptr %o.addr, align 8
  store float 0.000000e+00, ptr %ref.tmp2, align 4
  call void @_ZN9btVector4C2ERKfS1_S1_S1_(ptr noundef nonnull align 4 dereferenceable(16) %ref.tmp, ptr noundef nonnull align 4 dereferenceable(4) @_ZZN10btSoftBody10appendNoteEPKcRK9btVector3PNS_4FaceEE1w, ptr noundef nonnull align 4 dereferenceable(4) @_ZZN10btSoftBody10appendNoteEPKcRK9btVector3PNS_4FaceEE1w, ptr noundef nonnull align 4 dereferenceable(4) @_ZZN10btSoftBody10appendNoteEPKcRK9btVector3PNS_4FaceEE1w, ptr noundef nonnull align 4 dereferenceable(4) %ref.tmp2)
  %2 = load ptr, ptr %feature.addr, align 8
  %m_n = getelementptr inbounds %"struct.btSoftBody::Face", ptr %2, i32 0, i32 1
  %arrayidx = getelementptr inbounds [3 x ptr], ptr %m_n, i64 0, i64 0
  %3 = load ptr, ptr %arrayidx, align 8
  %4 = load ptr, ptr %feature.addr, align 8
  %m_n3 = getelementptr inbounds %"struct.btSoftBody::Face", ptr %4, i32 0, i32 1
  %arrayidx4 = getelementptr inbounds [3 x ptr], ptr %m_n3, i64 0, i64 1
  %5 = load ptr, ptr %arrayidx4, align 8
  %6 = load ptr, ptr %feature.addr, align 8
  %m_n5 = getelementptr inbounds %"struct.btSoftBody::Face", ptr %6, i32 0, i32 1
  %arrayidx6 = getelementptr inbounds [3 x ptr], ptr %m_n5, i64 0, i64 2
  %7 = load ptr, ptr %arrayidx6, align 8
  call void @_ZN10btSoftBody10appendNoteEPKcRK9btVector3RK9btVector4PNS_4NodeES9_S9_S9_(ptr noundef nonnull align 8 dereferenceable(2064) %this1, ptr noundef %0, ptr noundef nonnull align 4 dereferenceable(16) %1, ptr noundef nonnull align 4 dereferenceable(16) %ref.tmp, ptr noundef %3, ptr noundef %5, ptr noundef %7, ptr noundef null)
  ret void
}