; Function Attrs: mustprogress uwtable
define dso_local void @_ZN10btSoftBody10appendNoteEPKcRK9btVector3PNS_4FaceE(ptr nocapture noundef nonnull align 8 dereferenceable(2064) %this, ptr noundef %text, ptr nocapture noundef nonnull readonly align 4 dereferenceable(16) %o, ptr nocapture noundef readonly %feature) local_unnamed_addr #4 align 2 {
entry:
  %ref.tmp = alloca %class.btVector4, align 16
  store <4 x float> <float 0x3FD5555560000000, float 0x3FD5555560000000, float 0x3FD5555560000000, float 0.000000e+00>, ptr %ref.tmp, align 16
  %m_n = getelementptr inbounds i8, ptr %feature, i64 16
  %0 = load ptr, ptr %m_n, align 8
  %arrayidx4 = getelementptr inbounds i8, ptr %feature, i64 24
  %1 = load ptr, ptr %arrayidx4, align 8
  %arrayidx6 = getelementptr inbounds i8, ptr %feature, i64 32
  %2 = load ptr, ptr %arrayidx6, align 8
  call void @_ZN10btSoftBody10appendNoteEPKcRK9btVector3RK9btVector4PNS_4NodeES9_S9_S9_(ptr noundef nonnull align 8 dereferenceable(2064) %this, ptr noundef %text, ptr noundef nonnull align 4 dereferenceable(16) %o, ptr noundef nonnull align 4 dereferenceable(16) %ref.tmp, ptr noundef %0, ptr noundef %1, ptr noundef %2, ptr noundef null)
  ret void
}